target datalayout = "e-m:e-p270:32:32-p271:32:32-p272:64:64-i64:64-i128:128-f80:128-n8:16:32:64-S128"
target triple = "x86_64-pc-linux-gnu"

%"struct.cv::Ptr" = type { %"class.std::shared_ptr" }
%"class.std::shared_ptr" = type { %"class.std::__shared_ptr" }
%"class.std::__shared_ptr" = type { ptr, %"class.std::__shared_count" }
%"class.std::__shared_count" = type { ptr }
%"class.cv::superres::SuperResolution" = type <{ %"class.cv::Algorithm", %"class.cv::superres::FrameSource", i8, [7 x i8], %"struct.cv::Ptr", i8, [7 x i8] }>
%"class.cv::Algorithm" = type { ptr }
%"class.cv::superres::FrameSource" = type { ptr }
%"class.cv::utils::trace::details::Region" = type <{ ptr, i32, [4 x i8] }>

; Function Attrs: inlinehint mustprogress uwtable
define linkonce_odr hidden noundef zeroext i1 @_ZNK2cv11_InputArray6isUMatEv(ptr noundef nonnull align 8 dereferenceable(24) %0) #6 comdat align 2 {
  %2 = alloca ptr, align 8
  store ptr %0, ptr %2, align 8, !tbaa !31
  %3 = load ptr, ptr %2, align 8
  %4 = call noundef i32 @_ZNK2cv11_InputArray4kindEv(ptr noundef nonnull align 8 dereferenceable(24) %3)
  %5 = icmp eq i32 %4, 655360
  ret i1 %5
}

; Function Attrs: mustprogress uwtable
define void @_ZN2cv8superres15SuperResolution9nextFrameERKNS_12_OutputArrayE(ptr noundef nonnull align 8 dereferenceable(41) %0, ptr noundef nonnull align 8 dereferenceable(24) %1) unnamed_addr #0 align 2 personality ptr @__gxx_personality_v0 {
  %3 = alloca ptr, align 8
  %4 = alloca ptr, align 8
  %5 = alloca %"class.cv::utils::trace::details::Region", align 8
  %6 = alloca ptr, align 8
  %7 = alloca i32, align 4
  store ptr %0, ptr %3, align 8, !tbaa !3
  store ptr %1, ptr %4, align 8, !tbaa !27
  %8 = load ptr, ptr %3, align 8
  call void @llvm.lifetime.start.p0(i64 16, ptr %5) #15
  call void @_ZN2cv5utils5trace7details6RegionC1ERKNS3_21LocationStaticStorageE(ptr noundef nonnull align 8 dereferenceable(12) %5, ptr noundef nonnull align 8 dereferenceable(32) @_ZZN2cv8superres15SuperResolution9nextFrameERKNS_12_OutputArrayEE24__cv_trace_location_fn64)
  %9 = load ptr, ptr %4, align 8, !tbaa !27
  %10 = invoke noundef zeroext i1 @_ZNK2cv11_InputArray6isUMatEv(ptr noundef nonnull align 8 dereferenceable(24) %9)
          to label %11 unwind label %29

11:                                               ; preds = %2
  br i1 %10, label %12, label %15

12:                                               ; preds = %11
  %13 = invoke noundef zeroext i1 @_ZN2cv3ocl9useOpenCLEv()
          to label %14 unwind label %29

14:                                               ; preds = %12
  br label %15

15:                                               ; preds = %14, %11
  %16 = phi i1 [ false, %11 ], [ %13, %14 ]
  %17 = getelementptr inbounds nuw %"class.cv::superres::SuperResolution", ptr %8, i32 0, i32 2
  %18 = zext i1 %16 to i8
  store i8 %18, ptr %17, align 8, !tbaa !21
  %19 = getelementptr inbounds nuw %"class.cv::superres::SuperResolution", ptr %8, i32 0, i32 5
  %20 = load i8, ptr %19, align 8, !tbaa !10, !range !29, !noundef !30
  %21 = trunc i8 %20 to i1
  br i1 %21, label %22, label %33

22:                                               ; preds = %15
  %23 = getelementptr inbounds nuw %"class.cv::superres::SuperResolution", ptr %8, i32 0, i32 4
  %24 = load ptr, ptr %8, align 8, !tbaa !8
  %25 = getelementptr inbounds ptr, ptr %24, i64 31
  %26 = load ptr, ptr %25, align 8
  invoke void %26(ptr noundef nonnull align 8 dereferenceable(41) %8, ptr noundef nonnull align 8 dereferenceable(16) %23)
          to label %27 unwind label %29

27:                                               ; preds = %22
  %28 = getelementptr inbounds nuw %"class.cv::superres::SuperResolution", ptr %8, i32 0, i32 5
  store i8 0, ptr %28, align 8, !tbaa !10
  br label %33

29:                                               ; preds = %33, %22, %12, %2
  %30 = landingpad { ptr, i32 }
          cleanup
  %31 = extractvalue { ptr, i32 } %30, 0
  store ptr %31, ptr %6, align 8
  %32 = extractvalue { ptr, i32 } %30, 1
  store i32 %32, ptr %7, align 4
  call void @_ZN2cv5utils5trace7details6RegionD2Ev(ptr noundef nonnull align 8 dereferenceable(12) %5) #15
  call void @llvm.lifetime.end.p0(i64 16, ptr %5) #15
  br label %40

33:                                               ; preds = %27, %15
  %34 = getelementptr inbounds nuw %"class.cv::superres::SuperResolution", ptr %8, i32 0, i32 4
  %35 = load ptr, ptr %4, align 8, !tbaa !27
  %36 = load ptr, ptr %8, align 8, !tbaa !8
  %37 = getelementptr inbounds ptr, ptr %36, i64 32
  %38 = load ptr, ptr %37, align 8
  invoke void %38(ptr noundef nonnull align 8 dereferenceable(41) %8, ptr noundef nonnull align 8 dereferenceable(16) %34, ptr noundef nonnull align 8 dereferenceable(24) %35)
          to label %39 unwind label %29

39:                                               ; preds = %33
  call void @_ZN2cv5utils5trace7details6RegionD2Ev(ptr noundef nonnull align 8 dereferenceable(12) %5) #15
  call void @llvm.lifetime.end.p0(i64 16, ptr %5) #15
  ret void

40:                                               ; preds = %29
  %41 = load ptr, ptr %6, align 8
  %42 = load i32, ptr %7, align 4
  %43 = insertvalue { ptr, i32 } poison, ptr %41, 0
  %44 = insertvalue { ptr, i32 } %43, i32 %42, 1
  resume { ptr, i32 } %44
}