; Function Attrs: mustprogress uwtable
define void @_ZN2cv8superres15SuperResolution9nextFrameERKNS_12_OutputArrayE(ptr noundef nonnull align 8 dereferenceable(41) %0, ptr noundef nonnull align 8 dereferenceable(24) %1) unnamed_addr #0 align 2 personality ptr @__gxx_personality_v0 {
  %3 = alloca %"class.cv::utils::trace::details::Region", align 8
  call void @llvm.lifetime.start.p0(i64 16, ptr nonnull %3) #14
  call void @_ZN2cv5utils5trace7details6RegionC1ERKNS3_21LocationStaticStorageE(ptr noundef nonnull align 8 dereferenceable(12) %3, ptr noundef nonnull align 8 dereferenceable(32) @_ZZN2cv8superres15SuperResolution9nextFrameERKNS_12_OutputArrayEE24__cv_trace_location_fn64)
  %4 = invoke noundef i32 @_ZNK2cv11_InputArray4kindEv(ptr noundef nonnull align 8 dereferenceable(24) %1)
          to label %5 unwind label %22

5:                                                ; preds = %2
  %6 = icmp eq i32 %4, 655360
  br i1 %6, label %7, label %9

7:                                                ; preds = %5
  %8 = invoke noundef zeroext i1 @_ZN2cv3ocl9useOpenCLEv()
          to label %9 unwind label %22

9:                                                ; preds = %7, %5
  %10 = phi i1 [ false, %5 ], [ %8, %7 ]
  %11 = getelementptr inbounds nuw i8, ptr %0, i64 16
  %12 = zext i1 %10 to i8
  store i8 %12, ptr %11, align 8, !tbaa !28
  %13 = getelementptr inbounds nuw i8, ptr %0, i64 40
  %14 = load i8, ptr %13, align 8, !tbaa !21, !range !29, !noundef !30
  %15 = trunc nuw i8 %14 to i1
  br i1 %15, label %16, label %24

16:                                               ; preds = %9
  %17 = getelementptr inbounds nuw i8, ptr %0, i64 24
  %18 = load ptr, ptr %0, align 8, !tbaa !3
  %19 = getelementptr inbounds nuw i8, ptr %18, i64 248
  %20 = load ptr, ptr %19, align 8
  invoke void %20(ptr noundef nonnull align 8 dereferenceable(41) %0, ptr noundef nonnull align 8 dereferenceable(16) %17)
          to label %21 unwind label %22

21:                                               ; preds = %16
  store i8 0, ptr %13, align 8, !tbaa !21
  br label %24

22:                                               ; preds = %2, %24, %16, %7
  %23 = landingpad { ptr, i32 }
          cleanup
  call void @_ZN2cv5utils5trace7details6RegionD2Ev(ptr noundef nonnull align 8 dereferenceable(12) %3) #14
  call void @llvm.lifetime.end.p0(i64 16, ptr nonnull %3) #14
  resume { ptr, i32 } %23

24:                                               ; preds = %21, %9
  %25 = getelementptr inbounds nuw i8, ptr %0, i64 24
  %26 = load ptr, ptr %0, align 8, !tbaa !3
  %27 = getelementptr inbounds nuw i8, ptr %26, i64 256
  %28 = load ptr, ptr %27, align 8
  invoke void %28(ptr noundef nonnull align 8 dereferenceable(41) %0, ptr noundef nonnull align 8 dereferenceable(16) %25, ptr noundef nonnull align 8 dereferenceable(24) %1)
          to label %29 unwind label %22

29:                                               ; preds = %24
  %30 = getelementptr inbounds nuw i8, ptr %3, i64 8
  %31 = load i32, ptr %30, align 8, !tbaa !31
  %.not.i = icmp eq i32 %31, 0
  br i1 %.not.i, label %_ZN2cv5utils5trace7details6RegionD2Ev.exit, label %32

32:                                               ; preds = %29
  invoke void @_ZN2cv5utils5trace7details6Region7destroyEv(ptr noundef nonnull align 8 dereferenceable(12) %3)
          to label %_ZN2cv5utils5trace7details6RegionD2Ev.exit unwind label %33

33:                                               ; preds = %32
  %34 = landingpad { ptr, i32 }
          catch ptr null
  %35 = extractvalue { ptr, i32 } %34, 0
  call void @__clang_call_terminate(ptr %35) #15
  unreachable

_ZN2cv5utils5trace7details6RegionD2Ev.exit:       ; preds = %29, %32
  call void @llvm.lifetime.end.p0(i64 16, ptr nonnull %3) #14
  ret void
}